Certificate:
    Data:
        Version: 3 (0x2)
        Serial Number: 1 (0x1)
    Signature Algorithm: sha256WithRSAEncryption
        Issuer: C=CH, ST=JS, L=SZ, O=Fort-Funston, OU=MyOrganizationalUnit, CN=Fort-Funston CA/name=EasyRSA/emailAddress=me@myhost.mydomain
        Validity
            Not Before: May  2 01:12:44 2018 GMT
            Not After : Apr 29 01:12:44 2028 GMT
        Subject: C=CH, ST=JS, L=SZ, O=Fort-Funston, OU=MyOrganizationalUnit, CN=server/name=EasyRSA/emailAddress=me@myhost.mydomain
        Subject Public Key Info:
            Public Key Algorithm: rsaEncryption
                Public-Key: (2048 bit)
                Modulus:
                    00:b0:f0:b1:e5:c3:67:69:7e:28:57:3d:f0:7f:90:
                    8d:6e:59:09:07:60:50:2f:85:f4:7d:2d:08:01:75:
                    e3:d3:ae:30:82:8a:43:58:f7:d9:04:36:8d:17:46:
                    c5:ef:20:1e:91:fa:58:b7:6d:36:4e:48:70:c8:29:
                    61:4f:18:e5:f9:0b:3d:33:a8:ce:dc:86:e2:9c:fe:
                    04:68:bd:f1:70:f5:c2:6c:2e:83:14:c5:f7:8d:0f:
                    a6:01:0a:e7:bc:33:54:bd:e1:21:a9:a0:ff:6a:07:
                    2c:c3:89:47:70:ac:5b:65:26:78:88:12:11:91:6f:
                    e1:48:a1:a9:30:56:51:5c:d7:c7:cb:81:f5:a3:fc:
                    5e:28:e7:75:1a:e1:db:57:0e:59:7e:1c:c5:97:22:
                    38:d7:55:f1:46:c8:29:bd:28:96:64:a2:4b:b3:a3:
                    7a:3e:fd:8c:1a:51:3c:8a:f2:17:8c:a3:07:65:79:
                    67:0c:81:f7:a3:d0:b9:9b:a4:0b:75:e1:69:01:cb:
                    50:a2:0e:3f:06:b9:1b:17:f6:b7:bf:0d:08:56:c6:
                    a5:7c:df:66:73:33:86:7e:18:ee:b5:00:c4:c1:fd:
                    39:fc:f5:20:c1:f3:d8:f5:80:b8:95:b9:d1:6b:f9:
                    52:1c:6b:b6:20:43:16:45:f7:d0:f3:c6:92:ed:50:
                    17:4b
                Exponent: 65537 (0x10001)
        X509v3 extensions:
            X509v3 Basic Constraints: 
                CA:FALSE
            Netscape Cert Type: 
                SSL Server
            Netscape Comment: 
                Easy-RSA Generated Server Certificate
            X509v3 Subject Key Identifier: 
                91:99:CE:E0:0F:C4:E1:BD:F8:EC:E5:5A:45:BA:9E:78:6C:49:4A:A4
            X509v3 Authority Key Identifier: 
                keyid:69:E8:3A:FB:2C:40:33:AF:9A:3B:6C:A3:95:1C:8C:2A:67:C9:2F:C4
                DirName:/C=CH/ST=JS/L=SZ/O=Fort-Funston/OU=MyOrganizationalUnit/CN=Fort-Funston CA/name=EasyRSA/emailAddress=me@myhost.mydomain
                serial:A1:FA:7F:56:5A:5B:C9:97

            X509v3 Extended Key Usage: 
                TLS Web Server Authentication
            X509v3 Key Usage: 
                Digital Signature, Key Encipherment
            X509v3 Subject Alternative Name: 
                DNS:server
    Signature Algorithm: sha256WithRSAEncryption
         1c:72:8e:f3:46:90:46:e2:f3:50:46:92:aa:44:6c:ba:ba:21:
         3a:c1:a0:c8:b5:6d:1b:6d:c5:a3:0b:5c:52:71:1b:b4:3c:6c:
         e3:b0:ce:42:1c:04:f5:a7:1f:b2:f1:ec:9a:85:84:8e:ad:c0:
         0e:94:25:c1:c2:16:16:34:ca:64:90:e1:63:65:c7:04:e5:d6:
         50:31:0d:c6:46:21:ab:f5:c5:54:ad:46:0b:37:c2:03:4a:9a:
         fa:12:e3:13:bd:7b:3d:99:86:20:12:93:8c:4a:36:02:c0:ca:
         48:1d:33:97:5e:cb:53:c6:b0:0b:74:e2:c9:44:d5:4d:5b:f5:
         dc:3c:ba:59:d7:df:0f:f2:4b:da:13:99:5b:06:8e:c5:24:5e:
         65:9b:ce:57:e8:cd:52:1e:97:31:bd:aa:31:68:19:df:50:8d:
         d8:6d:d7:c3:c7:1b:2f:6f:d9:7e:7a:a6:f9:ee:bb:70:7c:2e:
         d1:45:9f:e8:aa:66:46:d2:e3:af:19:04:43:f5:97:eb:25:35:
         20:69:f3:34:1a:c5:f3:82:41:26:0a:06:40:a7:10:ff:52:a3:
         9f:cc:2f:0a:d6:6f:9f:4b:8b:68:a6:c7:99:26:9c:5a:2f:e9:
         be:b3:37:6c:f8:fa:a8:ff:05:3d:84:96:f3:8b:0e:3f:76:6e:
         72:16:13:0e
-----BEGIN CERTIFICATE-----
MIIFXjCCBEagAwIBAgIBATANBgkqhkiG9w0BAQsFADCBrDELMAkGA1UEBhMCQ0gx
CzAJBgNVBAgTAkpTMQswCQYDVQQHEwJTWjEVMBMGA1UEChMMRm9ydC1GdW5zdG9u
MR0wGwYDVQQLExRNeU9yZ2FuaXphdGlvbmFsVW5pdDEYMBYGA1UEAxMPRm9ydC1G
dW5zdG9uIENBMRAwDgYDVQQpEwdFYXN5UlNBMSEwHwYJKoZIhvcNAQkBFhJtZUBt
eWhvc3QubXlkb21haW4wHhcNMTgwNTAyMDExMjQ0WhcNMjgwNDI5MDExMjQ0WjCB
ozELMAkGA1UEBhMCQ0gxCzAJBgNVBAgTAkpTMQswCQYDVQQHEwJTWjEVMBMGA1UE
ChMMRm9ydC1GdW5zdG9uMR0wGwYDVQQLExRNeU9yZ2FuaXphdGlvbmFsVW5pdDEP
MA0GA1UEAxMGc2VydmVyMRAwDgYDVQQpEwdFYXN5UlNBMSEwHwYJKoZIhvcNAQkB
FhJtZUBteWhvc3QubXlkb21haW4wggEiMA0GCSqGSIb3DQEBAQUAA4IBDwAwggEK
AoIBAQCw8LHlw2dpfihXPfB/kI1uWQkHYFAvhfR9LQgBdePTrjCCikNY99kENo0X
RsXvIB6R+li3bTZOSHDIKWFPGOX5Cz0zqM7chuKc/gRovfFw9cJsLoMUxfeND6YB
Cue8M1S94SGpoP9qByzDiUdwrFtlJniIEhGRb+FIoakwVlFc18fLgfWj/F4o53Ua
4dtXDll+HMWXIjjXVfFGyCm9KJZkokuzo3o+/YwaUTyK8heMowdleWcMgfej0Lmb
pAt14WkBy1CiDj8GuRsX9re/DQhWxqV832ZzM4Z+GO61AMTB/Tn89SDB89j1gLiV
udFr+VIca7YgQxZF99DzxpLtUBdLAgMBAAGjggGQMIIBjDAJBgNVHRMEAjAAMBEG
CWCGSAGG+EIBAQQEAwIGQDA0BglghkgBhvhCAQ0EJxYlRWFzeS1SU0EgR2VuZXJh
dGVkIFNlcnZlciBDZXJ0aWZpY2F0ZTAdBgNVHQ4EFgQUkZnO4A/E4b347OVaRbqe
eGxJSqQwgeEGA1UdIwSB2TCB1oAUaeg6+yxAM6+aO2yjlRyMKmfJL8ShgbKkga8w
gawxCzAJBgNVBAYTAkNIMQswCQYDVQQIEwJKUzELMAkGA1UEBxMCU1oxFTATBgNV
BAoTDEZvcnQtRnVuc3RvbjEdMBsGA1UECxMUTXlPcmdhbml6YXRpb25hbFVuaXQx
GDAWBgNVBAMTD0ZvcnQtRnVuc3RvbiBDQTEQMA4GA1UEKRMHRWFzeVJTQTEhMB8G
CSqGSIb3DQEJARYSbWVAbXlob3N0Lm15ZG9tYWluggkAofp/VlpbyZcwEwYDVR0l
BAwwCgYIKwYBBQUHAwEwCwYDVR0PBAQDAgWgMBEGA1UdEQQKMAiCBnNlcnZlcjAN
BgkqhkiG9w0BAQsFAAOCAQEAHHKO80aQRuLzUEaSqkRsurohOsGgyLVtG23Fowtc
UnEbtDxs47DOQhwE9acfsvHsmoWEjq3ADpQlwcIWFjTKZJDhY2XHBOXWUDENxkYh
q/XFVK1GCzfCA0qa+hLjE717PZmGIBKTjEo2AsDKSB0zl17LU8awC3TiyUTVTVv1
3Dy6WdffD/JL2hOZWwaOxSReZZvOV+jNUh6XMb2qMWgZ31CN2G3Xw8cbL2/Zfnqm
+e67cHwu0UWf6KpmRtLjrxkEQ/WX6yU1IGnzNBrF84JBJgoGQKcQ/1Kjn8wvCtZv
n0uLaKbHmSacWi/pvrM3bPj6qP8FPYSW84sOP3ZuchYTDg==
-----END CERTIFICATE-----
